target datalayout = "e-m:e-p270:32:32-p271:32:32-p272:64:64-i64:64-i128:128-f80:128-n8:16:32:64-S128"
target triple = "x86_64-pc-linux-gnu"

%class.TestCase = type { %"class.std::__cxx11::basic_string", %"class.std::__cxx11::basic_string", ptr }
%"class.std::__cxx11::basic_string" = type { %"struct.std::__cxx11::basic_string<char>::_Alloc_hider", i64, %union.anon }
%"struct.std::__cxx11::basic_string<char>::_Alloc_hider" = type { ptr }
%union.anon = type { i64, [8 x i8] }
%"struct.TestCase::Test" = type { i32, [3 x float], [3 x float], [3 x float], [3 x float], float, i16, i16, i8, ptr, i32, ptr, i32, i32, i32, i32, ptr }

; Function Attrs: mustprogress nounwind uwtable
define linkonce_odr dso_local void @_ZN8TestCase4TestD2Ev(ptr noundef nonnull align 8 dereferenceable(112) %0) unnamed_addr #0 comdat align 2 {
  %2 = alloca ptr, align 8
  store ptr %0, ptr %2, align 8
  %3 = load ptr, ptr %2, align 8
  %4 = getelementptr inbounds %"struct.TestCase::Test", ptr %3, i32 0, i32 9
  %5 = load ptr, ptr %4, align 8
  %6 = icmp eq ptr %5, null
  br i1 %6, label %8, label %7

7:                                                ; preds = %1
  call void @_ZdaPv(ptr noundef %5) #11
  br label %8

8:                                                ; preds = %7, %1
  %9 = getelementptr inbounds %"struct.TestCase::Test", ptr %3, i32 0, i32 11
  %10 = load ptr, ptr %9, align 8
  %11 = icmp eq ptr %10, null
  br i1 %11, label %13, label %12

12:                                               ; preds = %8
  call void @_ZdaPv(ptr noundef %10) #11
  br label %13

13:                                               ; preds = %12, %8
  ret void
}

; Function Attrs: mustprogress nounwind uwtable
define dso_local void @_ZN8TestCaseD2Ev(ptr noundef nonnull align 8 dereferenceable(72) %0) unnamed_addr #0 align 2 {
  %2 = alloca ptr, align 8
  %3 = alloca ptr, align 8
  %4 = alloca ptr, align 8
  store ptr %0, ptr %2, align 8
  %5 = load ptr, ptr %2, align 8
  %6 = getelementptr inbounds %class.TestCase, ptr %5, i32 0, i32 2
  %7 = load ptr, ptr %6, align 8
  store ptr %7, ptr %3, align 8
  br label %8

8:                                                ; preds = %18, %1
  %9 = load ptr, ptr %3, align 8
  %10 = icmp ne ptr %9, null
  br i1 %10, label %11, label %20

11:                                               ; preds = %8
  %12 = load ptr, ptr %3, align 8
  %13 = getelementptr inbounds %"struct.TestCase::Test", ptr %12, i32 0, i32 16
  %14 = load ptr, ptr %13, align 8
  store ptr %14, ptr %4, align 8
  %15 = load ptr, ptr %3, align 8
  %16 = icmp eq ptr %15, null
  br i1 %16, label %18, label %17

17:                                               ; preds = %11
  call void @_ZN8TestCase4TestD2Ev(ptr noundef nonnull align 8 dereferenceable(112) %15) #10
  call void @_ZdlPv(ptr noundef %15) #11
  br label %18

18:                                               ; preds = %17, %11
  %19 = load ptr, ptr %4, align 8
  store ptr %19, ptr %3, align 8
  br label %8, !llvm.loop !5

20:                                               ; preds = %8
  %21 = getelementptr inbounds %class.TestCase, ptr %5, i32 0, i32 1
  call void @_ZNSt7__cxx1112basic_stringIcSt11char_traitsIcESaIcEED1Ev(ptr noundef nonnull align 8 dereferenceable(32) %21) #10
  %22 = getelementptr inbounds %class.TestCase, ptr %5, i32 0, i32 0
  call void @_ZNSt7__cxx1112basic_stringIcSt11char_traitsIcESaIcEED1Ev(ptr noundef nonnull align 8 dereferenceable(32) %22) #10
  ret void
}