; Function Attrs: mustprogress nounwind uwtable
define dso_local void @_ZN8TestCaseD2Ev(ptr noundef nonnull align 8 dereferenceable(72) %0) unnamed_addr #0 align 2 {
  %2 = getelementptr inbounds nuw i8, ptr %0, i64 64
  %3 = load ptr, ptr %2, align 8
  %.not5 = icmp eq ptr %3, null
  br i1 %.not5, label %._crit_edge, label %.lr.ph

.lr.ph:                                           ; preds = %1, %_ZN8TestCase4TestD2Ev.exit
  %.06 = phi ptr [ %5, %_ZN8TestCase4TestD2Ev.exit ], [ %3, %1 ]
  %4 = getelementptr inbounds nuw i8, ptr %.06, i64 104
  %5 = load ptr, ptr %4, align 8
  %6 = getelementptr inbounds nuw i8, ptr %.06, i64 64
  %7 = load ptr, ptr %6, align 8
  %8 = icmp eq ptr %7, null
  br i1 %8, label %10, label %9

9:                                                ; preds = %.lr.ph
  tail call void @_ZdaPv(ptr noundef nonnull %7) #15
  br label %10

10:                                               ; preds = %9, %.lr.ph
  %11 = getelementptr inbounds nuw i8, ptr %.06, i64 80
  %12 = load ptr, ptr %11, align 8
  %13 = icmp eq ptr %12, null
  br i1 %13, label %_ZN8TestCase4TestD2Ev.exit, label %14

14:                                               ; preds = %10
  tail call void @_ZdaPv(ptr noundef nonnull %12) #15
  br label %_ZN8TestCase4TestD2Ev.exit

_ZN8TestCase4TestD2Ev.exit:                       ; preds = %10, %14
  tail call void @_ZdlPv(ptr noundef nonnull %.06) #15
  %.not = icmp eq ptr %5, null
  br i1 %.not, label %._crit_edge, label %.lr.ph, !llvm.loop !5

._crit_edge:                                      ; preds = %_ZN8TestCase4TestD2Ev.exit, %1
  %15 = getelementptr inbounds nuw i8, ptr %0, i64 32
  tail call void @_ZNSt7__cxx1112basic_stringIcSt11char_traitsIcESaIcEED1Ev(ptr noundef nonnull align 8 dereferenceable(32) %15) #14
  tail call void @_ZNSt7__cxx1112basic_stringIcSt11char_traitsIcESaIcEED1Ev(ptr noundef nonnull align 8 dereferenceable(32) %0) #14
  ret void
}